target datalayout = "e-m:e-p270:32:32-p271:32:32-p272:64:64-i64:64-i128:128-f80:128-n8:16:32:64-S128"
target triple = "x86_64-pc-linux-gnu"

%union.anon = type { i32 }
%struct.cdf_header_t = type { i64, [2 x i64], i16, i16, i16, i16, i16, [10 x i8], i32, i32, [4 x i8], i32, i32, i32, i32, i32, [109 x i32] }
%struct.cdf_info_t = type { i32, ptr, i64 }

@cdf_bo = internal global %union.anon zeroinitializer, align 4
@.str = private unnamed_addr constant [5 x i8] c"\01\02\03\04\00", align 1

; Function Attrs: nounwind uwtable
define hidden void @cdf_unpack_header(ptr noundef %0, ptr noundef %1) #0 {
  %3 = alloca ptr, align 8
  %4 = alloca ptr, align 8
  %5 = alloca i64, align 8
  %6 = alloca i64, align 8
  store ptr %0, ptr %3, align 8, !tbaa !16
  store ptr %1, ptr %4, align 8, !tbaa !9
  call void @llvm.lifetime.start.p0(i64 8, ptr %5) #13
  call void @llvm.lifetime.start.p0(i64 8, ptr %6) #13
  store i64 0, ptr %6, align 8, !tbaa !14
  %7 = load ptr, ptr %3, align 8, !tbaa !16
  %8 = getelementptr inbounds nuw %struct.cdf_header_t, ptr %7, i32 0, i32 0
  %9 = load ptr, ptr %4, align 8, !tbaa !9
  %10 = load i64, ptr %6, align 8, !tbaa !14
  %11 = getelementptr inbounds nuw i8, ptr %9, i64 %10
  call void @llvm.memcpy.p0.p0.i64(ptr align 8 %8, ptr align 1 %11, i64 8, i1 false)
  %12 = load i64, ptr %6, align 8, !tbaa !14
  %13 = add i64 %12, 8
  store i64 %13, ptr %6, align 8, !tbaa !14
  %14 = load ptr, ptr %3, align 8, !tbaa !16
  %15 = getelementptr inbounds nuw %struct.cdf_header_t, ptr %14, i32 0, i32 1
  %16 = getelementptr inbounds [2 x i64], ptr %15, i64 0, i64 0
  %17 = load ptr, ptr %4, align 8, !tbaa !9
  %18 = load i64, ptr %6, align 8, !tbaa !14
  %19 = getelementptr inbounds nuw i8, ptr %17, i64 %18
  call void @llvm.memcpy.p0.p0.i64(ptr align 8 %16, ptr align 1 %19, i64 16, i1 false)
  %20 = load i64, ptr %6, align 8, !tbaa !14
  %21 = add i64 %20, 16
  store i64 %21, ptr %6, align 8, !tbaa !14
  %22 = load ptr, ptr %3, align 8, !tbaa !16
  %23 = getelementptr inbounds nuw %struct.cdf_header_t, ptr %22, i32 0, i32 2
  %24 = load ptr, ptr %4, align 8, !tbaa !9
  %25 = load i64, ptr %6, align 8, !tbaa !14
  %26 = getelementptr inbounds nuw i8, ptr %24, i64 %25
  call void @llvm.memcpy.p0.p0.i64(ptr align 8 %23, ptr align 1 %26, i64 2, i1 false)
  %27 = load i64, ptr %6, align 8, !tbaa !14
  %28 = add i64 %27, 2
  store i64 %28, ptr %6, align 8, !tbaa !14
  %29 = load ptr, ptr %3, align 8, !tbaa !16
  %30 = getelementptr inbounds nuw %struct.cdf_header_t, ptr %29, i32 0, i32 3
  %31 = load ptr, ptr %4, align 8, !tbaa !9
  %32 = load i64, ptr %6, align 8, !tbaa !14
  %33 = getelementptr inbounds nuw i8, ptr %31, i64 %32
  call void @llvm.memcpy.p0.p0.i64(ptr align 2 %30, ptr align 1 %33, i64 2, i1 false)
  %34 = load i64, ptr %6, align 8, !tbaa !14
  %35 = add i64 %34, 2
  store i64 %35, ptr %6, align 8, !tbaa !14
  %36 = load ptr, ptr %3, align 8, !tbaa !16
  %37 = getelementptr inbounds nuw %struct.cdf_header_t, ptr %36, i32 0, i32 4
  %38 = load ptr, ptr %4, align 8, !tbaa !9
  %39 = load i64, ptr %6, align 8, !tbaa !14
  %40 = getelementptr inbounds nuw i8, ptr %38, i64 %39
  call void @llvm.memcpy.p0.p0.i64(ptr align 4 %37, ptr align 1 %40, i64 2, i1 false)
  %41 = load i64, ptr %6, align 8, !tbaa !14
  %42 = add i64 %41, 2
  store i64 %42, ptr %6, align 8, !tbaa !14
  %43 = load ptr, ptr %3, align 8, !tbaa !16
  %44 = getelementptr inbounds nuw %struct.cdf_header_t, ptr %43, i32 0, i32 5
  %45 = load ptr, ptr %4, align 8, !tbaa !9
  %46 = load i64, ptr %6, align 8, !tbaa !14
  %47 = getelementptr inbounds nuw i8, ptr %45, i64 %46
  call void @llvm.memcpy.p0.p0.i64(ptr align 2 %44, ptr align 1 %47, i64 2, i1 false)
  %48 = load i64, ptr %6, align 8, !tbaa !14
  %49 = add i64 %48, 2
  store i64 %49, ptr %6, align 8, !tbaa !14
  %50 = load ptr, ptr %3, align 8, !tbaa !16
  %51 = getelementptr inbounds nuw %struct.cdf_header_t, ptr %50, i32 0, i32 6
  %52 = load ptr, ptr %4, align 8, !tbaa !9
  %53 = load i64, ptr %6, align 8, !tbaa !14
  %54 = getelementptr inbounds nuw i8, ptr %52, i64 %53
  call void @llvm.memcpy.p0.p0.i64(ptr align 8 %51, ptr align 1 %54, i64 2, i1 false)
  %55 = load i64, ptr %6, align 8, !tbaa !14
  %56 = add i64 %55, 2
  store i64 %56, ptr %6, align 8, !tbaa !14
  %57 = load ptr, ptr %3, align 8, !tbaa !16
  %58 = getelementptr inbounds nuw %struct.cdf_header_t, ptr %57, i32 0, i32 7
  %59 = getelementptr inbounds [10 x i8], ptr %58, i64 0, i64 0
  %60 = load ptr, ptr %4, align 8, !tbaa !9
  %61 = load i64, ptr %6, align 8, !tbaa !14
  %62 = getelementptr inbounds nuw i8, ptr %60, i64 %61
  call void @llvm.memcpy.p0.p0.i64(ptr align 2 %59, ptr align 1 %62, i64 10, i1 false)
  %63 = load i64, ptr %6, align 8, !tbaa !14
  %64 = add i64 %63, 10
  store i64 %64, ptr %6, align 8, !tbaa !14
  %65 = load ptr, ptr %3, align 8, !tbaa !16
  %66 = getelementptr inbounds nuw %struct.cdf_header_t, ptr %65, i32 0, i32 8
  %67 = load ptr, ptr %4, align 8, !tbaa !9
  %68 = load i64, ptr %6, align 8, !tbaa !14
  %69 = getelementptr inbounds nuw i8, ptr %67, i64 %68
  call void @llvm.memcpy.p0.p0.i64(ptr align 4 %66, ptr align 1 %69, i64 4, i1 false)
  %70 = load i64, ptr %6, align 8, !tbaa !14
  %71 = add i64 %70, 4
  store i64 %71, ptr %6, align 8, !tbaa !14
  %72 = load ptr, ptr %3, align 8, !tbaa !16
  %73 = getelementptr inbounds nuw %struct.cdf_header_t, ptr %72, i32 0, i32 9
  %74 = load ptr, ptr %4, align 8, !tbaa !9
  %75 = load i64, ptr %6, align 8, !tbaa !14
  %76 = getelementptr inbounds nuw i8, ptr %74, i64 %75
  call void @llvm.memcpy.p0.p0.i64(ptr align 8 %73, ptr align 1 %76, i64 4, i1 false)
  %77 = load i64, ptr %6, align 8, !tbaa !14
  %78 = add i64 %77, 4
  store i64 %78, ptr %6, align 8, !tbaa !14
  %79 = load ptr, ptr %3, align 8, !tbaa !16
  %80 = getelementptr inbounds nuw %struct.cdf_header_t, ptr %79, i32 0, i32 10
  %81 = getelementptr inbounds [4 x i8], ptr %80, i64 0, i64 0
  %82 = load ptr, ptr %4, align 8, !tbaa !9
  %83 = load i64, ptr %6, align 8, !tbaa !14
  %84 = getelementptr inbounds nuw i8, ptr %82, i64 %83
  call void @llvm.memcpy.p0.p0.i64(ptr align 4 %81, ptr align 1 %84, i64 4, i1 false)
  %85 = load i64, ptr %6, align 8, !tbaa !14
  %86 = add i64 %85, 4
  store i64 %86, ptr %6, align 8, !tbaa !14
  %87 = load ptr, ptr %3, align 8, !tbaa !16
  %88 = getelementptr inbounds nuw %struct.cdf_header_t, ptr %87, i32 0, i32 11
  %89 = load ptr, ptr %4, align 8, !tbaa !9
  %90 = load i64, ptr %6, align 8, !tbaa !14
  %91 = getelementptr inbounds nuw i8, ptr %89, i64 %90
  call void @llvm.memcpy.p0.p0.i64(ptr align 8 %88, ptr align 1 %91, i64 4, i1 false)
  %92 = load i64, ptr %6, align 8, !tbaa !14
  %93 = add i64 %92, 4
  store i64 %93, ptr %6, align 8, !tbaa !14
  %94 = load ptr, ptr %3, align 8, !tbaa !16
  %95 = getelementptr inbounds nuw %struct.cdf_header_t, ptr %94, i32 0, i32 12
  %96 = load ptr, ptr %4, align 8, !tbaa !9
  %97 = load i64, ptr %6, align 8, !tbaa !14
  %98 = getelementptr inbounds nuw i8, ptr %96, i64 %97
  call void @llvm.memcpy.p0.p0.i64(ptr align 4 %95, ptr align 1 %98, i64 4, i1 false)
  %99 = load i64, ptr %6, align 8, !tbaa !14
  %100 = add i64 %99, 4
  store i64 %100, ptr %6, align 8, !tbaa !14
  %101 = load ptr, ptr %3, align 8, !tbaa !16
  %102 = getelementptr inbounds nuw %struct.cdf_header_t, ptr %101, i32 0, i32 13
  %103 = load ptr, ptr %4, align 8, !tbaa !9
  %104 = load i64, ptr %6, align 8, !tbaa !14
  %105 = getelementptr inbounds nuw i8, ptr %103, i64 %104
  call void @llvm.memcpy.p0.p0.i64(ptr align 8 %102, ptr align 1 %105, i64 4, i1 false)
  %106 = load i64, ptr %6, align 8, !tbaa !14
  %107 = add i64 %106, 4
  store i64 %107, ptr %6, align 8, !tbaa !14
  %108 = load ptr, ptr %3, align 8, !tbaa !16
  %109 = getelementptr inbounds nuw %struct.cdf_header_t, ptr %108, i32 0, i32 14
  %110 = load ptr, ptr %4, align 8, !tbaa !9
  %111 = load i64, ptr %6, align 8, !tbaa !14
  %112 = getelementptr inbounds nuw i8, ptr %110, i64 %111
  call void @llvm.memcpy.p0.p0.i64(ptr align 4 %109, ptr align 1 %112, i64 4, i1 false)
  %113 = load i64, ptr %6, align 8, !tbaa !14
  %114 = add i64 %113, 4
  store i64 %114, ptr %6, align 8, !tbaa !14
  %115 = load ptr, ptr %3, align 8, !tbaa !16
  %116 = getelementptr inbounds nuw %struct.cdf_header_t, ptr %115, i32 0, i32 15
  %117 = load ptr, ptr %4, align 8, !tbaa !9
  %118 = load i64, ptr %6, align 8, !tbaa !14
  %119 = getelementptr inbounds nuw i8, ptr %117, i64 %118
  call void @llvm.memcpy.p0.p0.i64(ptr align 8 %116, ptr align 1 %119, i64 4, i1 false)
  %120 = load i64, ptr %6, align 8, !tbaa !14
  %121 = add i64 %120, 4
  store i64 %121, ptr %6, align 8, !tbaa !14
  store i64 0, ptr %5, align 8, !tbaa !14
  br label %122

122:                                              ; preds = %135, %2
  %123 = load i64, ptr %5, align 8, !tbaa !14
  %124 = icmp ult i64 %123, 109
  br i1 %124, label %125, label %138

125:                                              ; preds = %122
  %126 = load ptr, ptr %3, align 8, !tbaa !16
  %127 = getelementptr inbounds nuw %struct.cdf_header_t, ptr %126, i32 0, i32 16
  %128 = load i64, ptr %5, align 8, !tbaa !14
  %129 = getelementptr inbounds nuw [109 x i32], ptr %127, i64 0, i64 %128
  %130 = load ptr, ptr %4, align 8, !tbaa !9
  %131 = load i64, ptr %6, align 8, !tbaa !14
  %132 = getelementptr inbounds nuw i8, ptr %130, i64 %131
  call void @llvm.memcpy.p0.p0.i64(ptr align 4 %129, ptr align 1 %132, i64 4, i1 false)
  %133 = load i64, ptr %6, align 8, !tbaa !14
  %134 = add i64 %133, 4
  store i64 %134, ptr %6, align 8, !tbaa !14
  br label %135

135:                                              ; preds = %125
  %136 = load i64, ptr %5, align 8, !tbaa !14
  %137 = add i64 %136, 1
  store i64 %137, ptr %5, align 8, !tbaa !14
  br label %122

138:                                              ; preds = %122
  call void @llvm.lifetime.end.p0(i64 8, ptr %6) #13
  call void @llvm.lifetime.end.p0(i64 8, ptr %5) #13
  ret void
}

; Function Attrs: nounwind uwtable
define internal i64 @cdf_read(ptr noundef %0, i64 noundef %1, ptr noundef %2, i64 noundef %3) #0 {
  %5 = alloca i64, align 8
  %6 = alloca ptr, align 8
  %7 = alloca i64, align 8
  %8 = alloca ptr, align 8
  %9 = alloca i64, align 8
  %10 = alloca i64, align 8
  %11 = alloca i32, align 4
  store ptr %0, ptr %6, align 8, !tbaa !16
  store i64 %1, ptr %7, align 8, !tbaa !14
  store ptr %2, ptr %8, align 8, !tbaa !16
  store i64 %3, ptr %9, align 8, !tbaa !14
  call void @llvm.lifetime.start.p0(i64 8, ptr %10) #13
  %12 = load i64, ptr %7, align 8, !tbaa !14
  %13 = load i64, ptr %9, align 8, !tbaa !14
  %14 = add i64 %12, %13
  store i64 %14, ptr %10, align 8, !tbaa !14
  %15 = load i64, ptr %7, align 8, !tbaa !14
  %16 = load i64, ptr %9, align 8, !tbaa !14
  %17 = add i64 %15, %16
  %18 = load i64, ptr %10, align 8, !tbaa !14
  %19 = icmp ne i64 %17, %18
  br i1 %19, label %20, label %21

20:                                               ; preds = %4
  br label %67

21:                                               ; preds = %4
  %22 = load ptr, ptr %6, align 8, !tbaa !16
  %23 = getelementptr inbounds nuw %struct.cdf_info_t, ptr %22, i32 0, i32 1
  %24 = load ptr, ptr %23, align 8, !tbaa !48
  %25 = icmp ne ptr %24, null
  br i1 %25, label %26, label %41

26:                                               ; preds = %21
  %27 = load ptr, ptr %6, align 8, !tbaa !16
  %28 = getelementptr inbounds nuw %struct.cdf_info_t, ptr %27, i32 0, i32 2
  %29 = load i64, ptr %28, align 8, !tbaa !50
  %30 = load i64, ptr %10, align 8, !tbaa !14
  %31 = icmp uge i64 %29, %30
  br i1 %31, label %32, label %41

32:                                               ; preds = %26
  %33 = load ptr, ptr %8, align 8, !tbaa !16
  %34 = load ptr, ptr %6, align 8, !tbaa !16
  %35 = getelementptr inbounds nuw %struct.cdf_info_t, ptr %34, i32 0, i32 1
  %36 = load ptr, ptr %35, align 8, !tbaa !48
  %37 = load i64, ptr %7, align 8, !tbaa !14
  %38 = getelementptr inbounds i8, ptr %36, i64 %37
  %39 = load i64, ptr %9, align 8, !tbaa !14
  call void @llvm.memcpy.p0.p0.i64(ptr align 1 %33, ptr align 1 %38, i64 %39, i1 false)
  %40 = load i64, ptr %9, align 8, !tbaa !14
  store i64 %40, ptr %5, align 8
  store i32 1, ptr %11, align 4
  br label %69

41:                                               ; preds = %26, %21
  %42 = load ptr, ptr %6, align 8, !tbaa !16
  %43 = getelementptr inbounds nuw %struct.cdf_info_t, ptr %42, i32 0, i32 0
  %44 = load i32, ptr %43, align 8, !tbaa !51
  %45 = icmp eq i32 %44, -1
  br i1 %45, label %46, label %47

46:                                               ; preds = %41
  br label %67

47:                                               ; preds = %41
  %48 = load ptr, ptr %6, align 8, !tbaa !16
  %49 = getelementptr inbounds nuw %struct.cdf_info_t, ptr %48, i32 0, i32 0
  %50 = load i32, ptr %49, align 8, !tbaa !51
  %51 = load i64, ptr %7, align 8, !tbaa !14
  %52 = call i64 @lseek(i32 noundef %50, i64 noundef %51, i32 noundef 0) #13
  %53 = icmp eq i64 %52, -1
  br i1 %53, label %54, label %55

54:                                               ; preds = %47
  store i64 -1, ptr %5, align 8
  store i32 1, ptr %11, align 4
  br label %69

55:                                               ; preds = %47
  %56 = load ptr, ptr %6, align 8, !tbaa !16
  %57 = getelementptr inbounds nuw %struct.cdf_info_t, ptr %56, i32 0, i32 0
  %58 = load i32, ptr %57, align 8, !tbaa !51
  %59 = load ptr, ptr %8, align 8, !tbaa !16
  %60 = load i64, ptr %9, align 8, !tbaa !14
  %61 = call i64 @read(i32 noundef %58, ptr noundef %59, i64 noundef %60)
  %62 = load i64, ptr %9, align 8, !tbaa !14
  %63 = icmp ne i64 %61, %62
  br i1 %63, label %64, label %65

64:                                               ; preds = %55
  store i64 -1, ptr %5, align 8
  store i32 1, ptr %11, align 4
  br label %69

65:                                               ; preds = %55
  %66 = load i64, ptr %9, align 8, !tbaa !14
  store i64 %66, ptr %5, align 8
  store i32 1, ptr %11, align 4
  br label %69

67:                                               ; preds = %46, %20
  %68 = call ptr @__errno_location() #14
  store i32 22, ptr %68, align 4, !tbaa !12
  store i64 -1, ptr %5, align 8
  store i32 1, ptr %11, align 4
  br label %69

69:                                               ; preds = %67, %65, %64, %54, %32
  call void @llvm.lifetime.end.p0(i64 8, ptr %10) #13
  %70 = load i64, ptr %5, align 8
  ret i64 %70
}

; Function Attrs: nounwind uwtable
define hidden i32 @cdf_read_header(ptr noundef %0, ptr noundef %1) #0 {
  %3 = alloca i32, align 4
  %4 = alloca ptr, align 8
  %5 = alloca ptr, align 8
  %6 = alloca [512 x i8], align 16
  %7 = alloca i32, align 4
  store ptr %0, ptr %4, align 8, !tbaa !16
  store ptr %1, ptr %5, align 8, !tbaa !16
  call void @llvm.lifetime.start.p0(i64 512, ptr %6) #13
  call void @llvm.memcpy.p0.p0.i64(ptr align 4 @cdf_bo, ptr align 1 @.str, i64 4, i1 false)
  %8 = load ptr, ptr %4, align 8, !tbaa !16
  %9 = getelementptr inbounds [512 x i8], ptr %6, i64 0, i64 0
  %10 = call i64 @cdf_read(ptr noundef %8, i64 noundef 0, ptr noundef %9, i64 noundef 512)
  %11 = icmp eq i64 %10, -1
  br i1 %11, label %12, label %13

12:                                               ; preds = %2
  store i32 -1, ptr %3, align 4
  store i32 1, ptr %7, align 4
  br label %39

13:                                               ; preds = %2
  %14 = load ptr, ptr %5, align 8, !tbaa !16
  %15 = getelementptr inbounds [512 x i8], ptr %6, i64 0, i64 0
  call void @cdf_unpack_header(ptr noundef %14, ptr noundef %15)
  %16 = load ptr, ptr %5, align 8, !tbaa !16
  call void @cdf_swap_header(ptr noundef %16)
  %17 = load ptr, ptr %5, align 8, !tbaa !16
  %18 = getelementptr inbounds nuw %struct.cdf_header_t, ptr %17, i32 0, i32 0
  %19 = load i64, ptr %18, align 8, !tbaa !17
  %20 = icmp ne i64 %19, -2226271756974174256
  br i1 %20, label %21, label %22

21:                                               ; preds = %13
  br label %37

22:                                               ; preds = %13
  %23 = load ptr, ptr %5, align 8, !tbaa !16
  %24 = getelementptr inbounds nuw %struct.cdf_header_t, ptr %23, i32 0, i32 5
  %25 = load i16, ptr %24, align 2, !tbaa !22
  %26 = zext i16 %25 to i32
  %27 = icmp sgt i32 %26, 20
  br i1 %27, label %28, label %29

28:                                               ; preds = %22
  br label %37

29:                                               ; preds = %22
  %30 = load ptr, ptr %5, align 8, !tbaa !16
  %31 = getelementptr inbounds nuw %struct.cdf_header_t, ptr %30, i32 0, i32 6
  %32 = load i16, ptr %31, align 8, !tbaa !23
  %33 = zext i16 %32 to i32
  %34 = icmp sgt i32 %33, 20
  br i1 %34, label %35, label %36

35:                                               ; preds = %29
  br label %37

36:                                               ; preds = %29
  store i32 0, ptr %3, align 4
  store i32 1, ptr %7, align 4
  br label %39

37:                                               ; preds = %35, %28, %21
  %38 = call ptr @__errno_location() #14
  store i32 22, ptr %38, align 4, !tbaa !12
  store i32 -1, ptr %3, align 4
  store i32 1, ptr %7, align 4
  br label %39

39:                                               ; preds = %37, %36, %12
  call void @llvm.lifetime.end.p0(i64 512, ptr %6) #13
  %40 = load i32, ptr %3, align 4
  ret i32 %40
}