; Function Attrs: nounwind uwtable
define hidden range(i32 -1, 1) i32 @cdf_read_header(ptr noundef readonly captures(none) %0, ptr noundef captures(none) %1) local_unnamed_addr #7 {
  %3 = alloca [512 x i8], align 16
  call void @llvm.lifetime.start.p0(i64 512, ptr nonnull %3) #21
  store i1 true, ptr @cdf_bo.0, align 4
  %4 = getelementptr inbounds nuw i8, ptr %0, i64 8
  %5 = load ptr, ptr %4, align 8, !tbaa !10
  %.not.i = icmp eq ptr %5, null
  br i1 %.not.i, label %10, label %6

6:                                                ; preds = %2
  %7 = getelementptr inbounds nuw i8, ptr %0, i64 16
  %8 = load i64, ptr %7, align 8, !tbaa !14
  %.not24.i = icmp ult i64 %8, 512
  br i1 %.not24.i, label %10, label %9

9:                                                ; preds = %6
  call void @llvm.memcpy.p0.p0.i64(ptr noundef nonnull align 16 dereferenceable(512) %3, ptr noundef nonnull align 1 dereferenceable(512) %5, i64 512, i1 false)
  br label %cdf_read.exit

10:                                               ; preds = %6, %2
  %11 = load i32, ptr %0, align 8, !tbaa !15
  %12 = icmp eq i32 %11, -1
  br i1 %12, label %cdf_read.exit.thread.sink.split, label %13

13:                                               ; preds = %10
  %14 = tail call i64 @lseek(i32 noundef %11, i64 noundef 0, i32 noundef 0) #21
  %15 = icmp eq i64 %14, -1
  br i1 %15, label %cdf_read.exit.thread, label %16

16:                                               ; preds = %13
  %17 = load i32, ptr %0, align 8, !tbaa !15
  %18 = call i64 @read(i32 noundef %17, ptr noundef nonnull %3, i64 noundef 512) #21
  %.not25.i = icmp eq i64 %18, 512
  br i1 %.not25.i, label %cdf_read.exit, label %cdf_read.exit.thread

cdf_read.exit:                                    ; preds = %16, %9
  %19 = load i64, ptr %3, align 16
  store i64 %19, ptr %1, align 8
  %20 = getelementptr inbounds nuw i8, ptr %1, i64 8
  %21 = getelementptr inbounds nuw i8, ptr %3, i64 8
  call void @llvm.memcpy.p0.p0.i64(ptr noundef nonnull align 8 dereferenceable(16) %20, ptr noundef nonnull readonly align 8 dereferenceable(16) %21, i64 16, i1 false)
  %22 = getelementptr inbounds nuw i8, ptr %1, i64 24
  %23 = getelementptr inbounds nuw i8, ptr %3, i64 24
  %24 = load i16, ptr %23, align 8
  store i16 %24, ptr %22, align 8
  %25 = getelementptr inbounds nuw i8, ptr %1, i64 26
  %26 = getelementptr inbounds nuw i8, ptr %3, i64 26
  %27 = load i16, ptr %26, align 2
  store i16 %27, ptr %25, align 2
  %28 = getelementptr inbounds nuw i8, ptr %1, i64 28
  %29 = getelementptr inbounds nuw i8, ptr %3, i64 28
  %30 = load i16, ptr %29, align 4
  store i16 %30, ptr %28, align 4
  %31 = getelementptr inbounds nuw i8, ptr %1, i64 30
  %32 = getelementptr inbounds nuw i8, ptr %3, i64 30
  %33 = load i16, ptr %32, align 2
  store i16 %33, ptr %31, align 2
  %34 = getelementptr inbounds nuw i8, ptr %1, i64 32
  %35 = getelementptr inbounds nuw i8, ptr %3, i64 32
  %36 = load i16, ptr %35, align 16
  store i16 %36, ptr %34, align 8
  %37 = getelementptr inbounds nuw i8, ptr %1, i64 34
  %38 = getelementptr inbounds nuw i8, ptr %3, i64 34
  call void @llvm.memcpy.p0.p0.i64(ptr noundef nonnull align 2 dereferenceable(10) %37, ptr noundef nonnull readonly align 2 dereferenceable(10) %38, i64 10, i1 false)
  %39 = getelementptr inbounds nuw i8, ptr %1, i64 44
  %40 = getelementptr inbounds nuw i8, ptr %3, i64 44
  %41 = load i32, ptr %40, align 4
  store i32 %41, ptr %39, align 4
  %42 = getelementptr inbounds nuw i8, ptr %1, i64 48
  %43 = getelementptr inbounds nuw i8, ptr %3, i64 48
  %44 = load i32, ptr %43, align 16
  store i32 %44, ptr %42, align 8
  %45 = getelementptr inbounds nuw i8, ptr %1, i64 52
  %46 = getelementptr inbounds nuw i8, ptr %3, i64 52
  %47 = load i32, ptr %46, align 4
  store i32 %47, ptr %45, align 4
  %48 = getelementptr inbounds nuw i8, ptr %1, i64 56
  %49 = getelementptr inbounds nuw i8, ptr %3, i64 56
  %50 = load i32, ptr %49, align 8
  store i32 %50, ptr %48, align 8
  %51 = getelementptr inbounds nuw i8, ptr %1, i64 60
  %52 = getelementptr inbounds nuw i8, ptr %3, i64 60
  %53 = load i32, ptr %52, align 4
  store i32 %53, ptr %51, align 4
  %54 = getelementptr inbounds nuw i8, ptr %1, i64 64
  %55 = getelementptr inbounds nuw i8, ptr %3, i64 64
  %56 = load i32, ptr %55, align 16
  store i32 %56, ptr %54, align 8
  %57 = getelementptr inbounds nuw i8, ptr %1, i64 68
  %58 = getelementptr inbounds nuw i8, ptr %3, i64 68
  %59 = load i32, ptr %58, align 4
  store i32 %59, ptr %57, align 4
  %60 = getelementptr inbounds nuw i8, ptr %1, i64 72
  %61 = getelementptr inbounds nuw i8, ptr %3, i64 72
  %62 = load i32, ptr %61, align 8
  store i32 %62, ptr %60, align 8
  %63 = getelementptr inbounds nuw i8, ptr %1, i64 76
  %scevgep = getelementptr inbounds nuw i8, ptr %3, i64 76
  call void @llvm.memcpy.p0.p0.i64(ptr noundef nonnull align 4 dereferenceable(436) %63, ptr noundef nonnull align 4 dereferenceable(436) %scevgep, i64 436, i1 false)
  tail call void @cdf_swap_header(ptr noundef nonnull %1)
  %64 = load i64, ptr %1, align 8, !tbaa !16
  %.not = icmp eq i64 %64, -2226271756974174256
  br i1 %.not, label %65, label %cdf_read.exit.thread.sink.split

65:                                               ; preds = %cdf_read.exit
  %66 = load i16, ptr %31, align 2, !tbaa !19
  %67 = icmp ugt i16 %66, 20
  br i1 %67, label %cdf_read.exit.thread.sink.split, label %68

68:                                               ; preds = %65
  %69 = load i16, ptr %34, align 8, !tbaa !20
  %70 = icmp ugt i16 %69, 20
  br i1 %70, label %cdf_read.exit.thread.sink.split, label %cdf_read.exit.thread

cdf_read.exit.thread.sink.split:                  ; preds = %cdf_read.exit, %65, %68, %10
  %71 = tail call ptr @__errno_location() #22
  store i32 22, ptr %71, align 4, !tbaa !21
  br label %cdf_read.exit.thread

cdf_read.exit.thread:                             ; preds = %cdf_read.exit.thread.sink.split, %16, %13, %68
  %.0 = phi i32 [ 0, %68 ], [ -1, %13 ], [ -1, %16 ], [ -1, %cdf_read.exit.thread.sink.split ]
  call void @llvm.lifetime.end.p0(i64 512, ptr nonnull %3) #21
  ret i32 %.0
}